target datalayout = "e-m:e-p270:32:32-p271:32:32-p272:64:64-i64:64-i128:128-f80:128-n8:16:32:64-S128"
target triple = "x86_64-pc-linux-gnu"

@stderr = external global ptr, align 8
@.str.16 = private unnamed_addr constant [30 x i8] c"Unable to generate valid keys\00", align 1

; Function Attrs: nounwind uwtable
define internal void @keygen_ml_dsa_real_key(ptr noundef %0, ptr noundef %1, ptr noundef %2, ptr noundef %3) #0 {
  %5 = alloca ptr, align 8
  %6 = alloca ptr, align 8
  %7 = alloca ptr, align 8
  %8 = alloca ptr, align 8
  store ptr %0, ptr %5, align 8, !tbaa !23
  store ptr %1, ptr %6, align 8, !tbaa !21
  store ptr %2, ptr %7, align 8, !tbaa !15
  store ptr %3, ptr %8, align 8, !tbaa !15
  %9 = load ptr, ptr %5, align 8, !tbaa !23
  %10 = load ptr, ptr %6, align 8, !tbaa !21
  %11 = load ptr, ptr %7, align 8, !tbaa !15
  %12 = call i32 @keygen_ml_dsa_real_key_helper(ptr noundef %9, ptr noundef %10, ptr noundef %11)
  %13 = icmp ne i32 %12, 0
  br i1 %13, label %14, label %20

14:                                               ; preds = %4
  %15 = load ptr, ptr %5, align 8, !tbaa !23
  %16 = load ptr, ptr %6, align 8, !tbaa !21
  %17 = load ptr, ptr %8, align 8, !tbaa !15
  %18 = call i32 @keygen_ml_dsa_real_key_helper(ptr noundef %15, ptr noundef %16, ptr noundef %17)
  %19 = icmp ne i32 %18, 0
  br i1 %19, label %23, label %20

20:                                               ; preds = %14, %4
  %21 = load ptr, ptr @stderr, align 8, !tbaa !29
  %22 = call i32 (ptr, ptr, ...) @fprintf(ptr noundef %21, ptr noundef @.str.16) #6
  br label %23

23:                                               ; preds = %20, %14
  ret void
}