; Function Attrs: nounwind uwtable
define internal void @keygen_ml_dsa_real_key(ptr noundef captures(none) %0, ptr noundef captures(none) %1, ptr noundef %2, ptr noundef %3) #1 {
  %5 = tail call fastcc i32 @keygen_ml_dsa_real_key_helper(ptr noundef %0, ptr noundef %1, ptr noundef %2)
  %.not = icmp eq i32 %5, 0
  br i1 %.not, label %8, label %6

6:                                                ; preds = %4
  %7 = tail call fastcc i32 @keygen_ml_dsa_real_key_helper(ptr noundef %0, ptr noundef %1, ptr noundef %3)
  %.not6 = icmp eq i32 %7, 0
  br i1 %.not6, label %8, label %11

8:                                                ; preds = %6, %4
  %9 = load ptr, ptr @stderr, align 8, !tbaa !16
  %10 = tail call i64 @fwrite(ptr nonnull @.str.16, i64 29, i64 1, ptr %9) #7
  br label %11

11:                                               ; preds = %8, %6
  ret void
}